target datalayout = "e-m:e-p270:32:32-p271:32:32-p272:64:64-i64:64-i128:128-f80:128-n8:16:32:64-S128"
target triple = "x86_64-pc-linux-gnu"

%struct.pmix_object_t = type { %union.pthread_mutex_t, ptr, i32, %struct.pmix_tma }
%union.pthread_mutex_t = type { %struct.__pthread_mutex_s }
%struct.__pthread_mutex_s = type { i32, i32, i32, i32, i32, i16, i16, %struct.__pthread_internal_list }
%struct.__pthread_internal_list = type { ptr, ptr }
%struct.pmix_tma = type { ptr, ptr, ptr, ptr, ptr, ptr, ptr, ptr }
%struct.pmix_mca_base_framework_t = type { ptr, ptr, ptr, ptr, ptr, ptr, i32, i32, ptr, ptr, i32, i32, %struct.pmix_list_t, %struct.pmix_list_t }
%struct.pmix_list_t = type { %struct.pmix_object_t, %struct.pmix_list_item_t, i64 }
%struct.pmix_list_item_t = type { %struct.pmix_object_t, ptr, ptr, i32 }
%struct.pmix_output_desc_t = type { i8, i8, i32, i8, i32, ptr, ptr, i32, ptr, i32, i8, i8, i8, i8, ptr, i32, i32 }
%struct.pmix_value = type { i16, %union.anon }
%union.anon = type { %struct.pmix_envar_t }
%struct.pmix_envar_t = type { ptr, ptr, i8 }
%struct.pmix_info_array = type { i64, ptr }

@pmix_bfrops_base_framework = external global %struct.pmix_mca_base_framework_t, align 8
@pmix_output_info = external global [0 x %struct.pmix_output_desc_t], align 8
@.str.29 = private unnamed_addr constant [36 x i8] c"pmix20_bfrop_unpack: %d info arrays\00", align 1
@.str.30 = private unnamed_addr constant [36 x i8] c"pmix20_bfrop_unpack: init array[%d]\00", align 1

; Function Attrs: nounwind uwtable
define i32 @pmix20_bfrop_unpack_value(ptr noundef %0, ptr noundef %1, ptr noundef %2, ptr noundef %3, i16 noundef zeroext %4) #0 {
  %6 = alloca i32, align 4
  %7 = alloca ptr, align 8
  %8 = alloca ptr, align 8
  %9 = alloca ptr, align 8
  %10 = alloca ptr, align 8
  %11 = alloca i16, align 2
  %12 = alloca ptr, align 8
  %13 = alloca i32, align 4
  %14 = alloca i32, align 4
  %15 = alloca i32, align 4
  %16 = alloca i32, align 4
  store ptr %0, ptr %7, align 8, !tbaa !13
  store ptr %1, ptr %8, align 8, !tbaa !3
  store ptr %2, ptr %9, align 8, !tbaa !3
  store ptr %3, ptr %10, align 8, !tbaa !7
  store i16 %4, ptr %11, align 2, !tbaa !9
  call void @llvm.lifetime.start.p0(i64 8, ptr %12) #11
  call void @llvm.lifetime.start.p0(i64 4, ptr %13) #11
  call void @llvm.lifetime.start.p0(i64 4, ptr %14) #11
  call void @llvm.lifetime.start.p0(i64 4, ptr %15) #11
  %17 = load ptr, ptr %9, align 8, !tbaa !3
  store ptr %17, ptr %12, align 8, !tbaa !96
  %18 = load ptr, ptr %10, align 8, !tbaa !7
  %19 = load i32, ptr %18, align 4, !tbaa !11
  store i32 %19, ptr %14, align 4, !tbaa !11
  store i32 0, ptr %13, align 4, !tbaa !11
  br label %20

20:                                               ; preds = %48, %5
  %21 = load i32, ptr %13, align 4, !tbaa !11
  %22 = load i32, ptr %14, align 4, !tbaa !11
  %23 = icmp slt i32 %21, %22
  br i1 %23, label %24, label %51

24:                                               ; preds = %20
  %25 = load ptr, ptr %7, align 8, !tbaa !13
  %26 = load ptr, ptr %8, align 8, !tbaa !3
  %27 = load ptr, ptr %12, align 8, !tbaa !96
  %28 = load i32, ptr %13, align 4, !tbaa !11
  %29 = sext i32 %28 to i64
  %30 = getelementptr inbounds %struct.pmix_value, ptr %27, i64 %29
  %31 = getelementptr inbounds nuw %struct.pmix_value, ptr %30, i32 0, i32 0
  %32 = call i32 @pmix20_bfrop_get_data_type(ptr noundef %25, ptr noundef %26, ptr noundef %31)
  store i32 %32, ptr %15, align 4, !tbaa !11
  %33 = icmp ne i32 0, %32
  br i1 %33, label %34, label %36

34:                                               ; preds = %24
  %35 = load i32, ptr %15, align 4, !tbaa !11
  store i32 %35, ptr %6, align 4
  store i32 1, ptr %16, align 4
  br label %52

36:                                               ; preds = %24
  %37 = load ptr, ptr %7, align 8, !tbaa !13
  %38 = load ptr, ptr %8, align 8, !tbaa !3
  %39 = load ptr, ptr %12, align 8, !tbaa !96
  %40 = load i32, ptr %13, align 4, !tbaa !11
  %41 = sext i32 %40 to i64
  %42 = getelementptr inbounds %struct.pmix_value, ptr %39, i64 %41
  %43 = call i32 @unpack_val(ptr noundef %37, ptr noundef %38, ptr noundef %42)
  store i32 %43, ptr %15, align 4, !tbaa !11
  %44 = icmp ne i32 0, %43
  br i1 %44, label %45, label %47

45:                                               ; preds = %36
  %46 = load i32, ptr %15, align 4, !tbaa !11
  store i32 %46, ptr %6, align 4
  store i32 1, ptr %16, align 4
  br label %52

47:                                               ; preds = %36
  br label %48

48:                                               ; preds = %47
  %49 = load i32, ptr %13, align 4, !tbaa !11
  %50 = add nsw i32 %49, 1
  store i32 %50, ptr %13, align 4, !tbaa !11
  br label %20, !llvm.loop !98

51:                                               ; preds = %20
  store i32 0, ptr %6, align 4
  store i32 1, ptr %16, align 4
  br label %52

52:                                               ; preds = %51, %45, %34
  call void @llvm.lifetime.end.p0(i64 4, ptr %15) #11
  call void @llvm.lifetime.end.p0(i64 4, ptr %14) #11
  call void @llvm.lifetime.end.p0(i64 4, ptr %13) #11
  call void @llvm.lifetime.end.p0(i64 8, ptr %12) #11
  %53 = load i32, ptr %6, align 4
  ret i32 %53
}

; Function Attrs: nounwind uwtable
define i32 @pmix20_bfrop_unpack_array(ptr noundef %0, ptr noundef %1, ptr noundef %2, ptr noundef %3, i16 noundef zeroext %4) #0 {
  %6 = alloca i32, align 4
  %7 = alloca ptr, align 8
  %8 = alloca ptr, align 8
  %9 = alloca ptr, align 8
  %10 = alloca ptr, align 8
  %11 = alloca i16, align 2
  %12 = alloca ptr, align 8
  %13 = alloca i32, align 4
  %14 = alloca i32, align 4
  %15 = alloca i32, align 4
  %16 = alloca i32, align 4
  %17 = alloca i32, align 4
  store ptr %0, ptr %7, align 8, !tbaa !13
  store ptr %1, ptr %8, align 8, !tbaa !3
  store ptr %2, ptr %9, align 8, !tbaa !3
  store ptr %3, ptr %10, align 8, !tbaa !7
  store i16 %4, ptr %11, align 2, !tbaa !9
  call void @llvm.lifetime.start.p0(i64 8, ptr %12) #11
  call void @llvm.lifetime.start.p0(i64 4, ptr %13) #11
  call void @llvm.lifetime.start.p0(i64 4, ptr %14) #11
  call void @llvm.lifetime.start.p0(i64 4, ptr %15) #11
  call void @llvm.lifetime.start.p0(i64 4, ptr %16) #11
  %18 = load i32, ptr getelementptr inbounds nuw (%struct.pmix_mca_base_framework_t, ptr @pmix_bfrops_base_framework, i32 0, i32 11), align 4, !tbaa !15
  %19 = icmp sge i32 %18, 0
  br i1 %19, label %20, label %34

20:                                               ; preds = %5
  %21 = load i32, ptr getelementptr inbounds nuw (%struct.pmix_mca_base_framework_t, ptr @pmix_bfrops_base_framework, i32 0, i32 11), align 4, !tbaa !15
  %22 = icmp slt i32 %21, 64
  br i1 %22, label %23, label %34

23:                                               ; preds = %20
  %24 = load i32, ptr getelementptr inbounds nuw (%struct.pmix_mca_base_framework_t, ptr @pmix_bfrops_base_framework, i32 0, i32 11), align 4, !tbaa !15
  %25 = sext i32 %24 to i64
  %26 = getelementptr inbounds [0 x %struct.pmix_output_desc_t], ptr @pmix_output_info, i64 0, i64 %25
  %27 = getelementptr inbounds nuw %struct.pmix_output_desc_t, ptr %26, i32 0, i32 2
  %28 = load i32, ptr %27, align 4, !tbaa !26
  %29 = icmp sge i32 %28, 20
  br i1 %29, label %30, label %34

30:                                               ; preds = %23
  %31 = load i32, ptr getelementptr inbounds nuw (%struct.pmix_mca_base_framework_t, ptr @pmix_bfrops_base_framework, i32 0, i32 11), align 4, !tbaa !15
  %32 = load ptr, ptr %10, align 8, !tbaa !7
  %33 = load i32, ptr %32, align 4, !tbaa !11
  call void (i32, ptr, ...) @pmix_output(i32 noundef %31, ptr noundef @.str.29, i32 noundef %33)
  br label %34

34:                                               ; preds = %30, %23, %20, %5
  %35 = load ptr, ptr %9, align 8, !tbaa !3
  store ptr %35, ptr %12, align 8, !tbaa !180
  %36 = load ptr, ptr %10, align 8, !tbaa !7
  %37 = load i32, ptr %36, align 4, !tbaa !11
  store i32 %37, ptr %14, align 4, !tbaa !11
  store i32 0, ptr %13, align 4, !tbaa !11
  br label %38

38:                                               ; preds = %117, %34
  %39 = load i32, ptr %13, align 4, !tbaa !11
  %40 = load i32, ptr %14, align 4, !tbaa !11
  %41 = icmp slt i32 %39, %40
  br i1 %41, label %42, label %120

42:                                               ; preds = %38
  %43 = load i32, ptr getelementptr inbounds nuw (%struct.pmix_mca_base_framework_t, ptr @pmix_bfrops_base_framework, i32 0, i32 11), align 4, !tbaa !15
  %44 = icmp sge i32 %43, 0
  br i1 %44, label %45, label %58

45:                                               ; preds = %42
  %46 = load i32, ptr getelementptr inbounds nuw (%struct.pmix_mca_base_framework_t, ptr @pmix_bfrops_base_framework, i32 0, i32 11), align 4, !tbaa !15
  %47 = icmp slt i32 %46, 64
  br i1 %47, label %48, label %58

48:                                               ; preds = %45
  %49 = load i32, ptr getelementptr inbounds nuw (%struct.pmix_mca_base_framework_t, ptr @pmix_bfrops_base_framework, i32 0, i32 11), align 4, !tbaa !15
  %50 = sext i32 %49 to i64
  %51 = getelementptr inbounds [0 x %struct.pmix_output_desc_t], ptr @pmix_output_info, i64 0, i64 %50
  %52 = getelementptr inbounds nuw %struct.pmix_output_desc_t, ptr %51, i32 0, i32 2
  %53 = load i32, ptr %52, align 4, !tbaa !26
  %54 = icmp sge i32 %53, 20
  br i1 %54, label %55, label %58

55:                                               ; preds = %48
  %56 = load i32, ptr getelementptr inbounds nuw (%struct.pmix_mca_base_framework_t, ptr @pmix_bfrops_base_framework, i32 0, i32 11), align 4, !tbaa !15
  %57 = load i32, ptr %13, align 4, !tbaa !11
  call void (i32, ptr, ...) @pmix_output(i32 noundef %56, ptr noundef @.str.30, i32 noundef %57)
  br label %58

58:                                               ; preds = %55, %48, %45, %42
  %59 = load ptr, ptr %12, align 8, !tbaa !180
  %60 = load i32, ptr %13, align 4, !tbaa !11
  %61 = sext i32 %60 to i64
  %62 = getelementptr inbounds %struct.pmix_info_array, ptr %59, i64 %61
  call void @llvm.memset.p0.i64(ptr align 8 %62, i8 0, i64 16, i1 false)
  store i32 1, ptr %15, align 4, !tbaa !11
  %63 = load ptr, ptr %7, align 8, !tbaa !13
  %64 = load ptr, ptr %8, align 8, !tbaa !3
  %65 = load ptr, ptr %12, align 8, !tbaa !180
  %66 = load i32, ptr %13, align 4, !tbaa !11
  %67 = sext i32 %66 to i64
  %68 = getelementptr inbounds %struct.pmix_info_array, ptr %65, i64 %67
  %69 = getelementptr inbounds nuw %struct.pmix_info_array, ptr %68, i32 0, i32 0
  %70 = call i32 @pmix20_bfrop_unpack_sizet(ptr noundef %63, ptr noundef %64, ptr noundef %69, ptr noundef %15, i16 noundef zeroext 4)
  store i32 %70, ptr %16, align 4, !tbaa !11
  %71 = icmp ne i32 0, %70
  br i1 %71, label %72, label %74

72:                                               ; preds = %58
  %73 = load i32, ptr %16, align 4, !tbaa !11
  store i32 %73, ptr %6, align 4
  store i32 1, ptr %17, align 4
  br label %121

74:                                               ; preds = %58
  %75 = load ptr, ptr %12, align 8, !tbaa !180
  %76 = load i32, ptr %13, align 4, !tbaa !11
  %77 = sext i32 %76 to i64
  %78 = getelementptr inbounds %struct.pmix_info_array, ptr %75, i64 %77
  %79 = getelementptr inbounds nuw %struct.pmix_info_array, ptr %78, i32 0, i32 0
  %80 = load i64, ptr %79, align 8, !tbaa !182
  %81 = icmp ult i64 0, %80
  br i1 %81, label %82, label %116

82:                                               ; preds = %74
  %83 = load ptr, ptr %12, align 8, !tbaa !180
  %84 = load i32, ptr %13, align 4, !tbaa !11
  %85 = sext i32 %84 to i64
  %86 = getelementptr inbounds %struct.pmix_info_array, ptr %83, i64 %85
  %87 = getelementptr inbounds nuw %struct.pmix_info_array, ptr %86, i32 0, i32 0
  %88 = load i64, ptr %87, align 8, !tbaa !182
  %89 = mul i64 %88, 552
  %90 = call noalias ptr @malloc(i64 noundef %89) #14
  %91 = load ptr, ptr %12, align 8, !tbaa !180
  %92 = load i32, ptr %13, align 4, !tbaa !11
  %93 = sext i32 %92 to i64
  %94 = getelementptr inbounds %struct.pmix_info_array, ptr %91, i64 %93
  %95 = getelementptr inbounds nuw %struct.pmix_info_array, ptr %94, i32 0, i32 1
  store ptr %90, ptr %95, align 8, !tbaa !184
  %96 = load ptr, ptr %12, align 8, !tbaa !180
  %97 = load i32, ptr %13, align 4, !tbaa !11
  %98 = sext i32 %97 to i64
  %99 = getelementptr inbounds %struct.pmix_info_array, ptr %96, i64 %98
  %100 = getelementptr inbounds nuw %struct.pmix_info_array, ptr %99, i32 0, i32 0
  %101 = load i64, ptr %100, align 8, !tbaa !182
  %102 = trunc i64 %101 to i32
  store i32 %102, ptr %15, align 4, !tbaa !11
  %103 = load ptr, ptr %7, align 8, !tbaa !13
  %104 = load ptr, ptr %8, align 8, !tbaa !3
  %105 = load ptr, ptr %12, align 8, !tbaa !180
  %106 = load i32, ptr %13, align 4, !tbaa !11
  %107 = sext i32 %106 to i64
  %108 = getelementptr inbounds %struct.pmix_info_array, ptr %105, i64 %107
  %109 = getelementptr inbounds nuw %struct.pmix_info_array, ptr %108, i32 0, i32 1
  %110 = load ptr, ptr %109, align 8, !tbaa !184
  %111 = call i32 @pmix20_bfrop_unpack_value(ptr noundef %103, ptr noundef %104, ptr noundef %110, ptr noundef %15, i16 noundef zeroext 24)
  store i32 %111, ptr %16, align 4, !tbaa !11
  %112 = icmp ne i32 0, %111
  br i1 %112, label %113, label %115

113:                                              ; preds = %82
  %114 = load i32, ptr %16, align 4, !tbaa !11
  store i32 %114, ptr %6, align 4
  store i32 1, ptr %17, align 4
  br label %121

115:                                              ; preds = %82
  br label %116

116:                                              ; preds = %115, %74
  br label %117

117:                                              ; preds = %116
  %118 = load i32, ptr %13, align 4, !tbaa !11
  %119 = add nsw i32 %118, 1
  store i32 %119, ptr %13, align 4, !tbaa !11
  br label %38, !llvm.loop !185

120:                                              ; preds = %38
  store i32 0, ptr %6, align 4
  store i32 1, ptr %17, align 4
  br label %121

121:                                              ; preds = %120, %113, %72
  call void @llvm.lifetime.end.p0(i64 4, ptr %16) #11
  call void @llvm.lifetime.end.p0(i64 4, ptr %15) #11
  call void @llvm.lifetime.end.p0(i64 4, ptr %14) #11
  call void @llvm.lifetime.end.p0(i64 4, ptr %13) #11
  call void @llvm.lifetime.end.p0(i64 8, ptr %12) #11
  %122 = load i32, ptr %6, align 4
  ret i32 %122
}