; Function Attrs: nounwind uwtable
define i32 @pmix20_bfrop_unpack_array(ptr noundef %0, ptr noundef %1, ptr noundef %2, ptr noundef readonly captures(none) %3, i16 noundef zeroext %4) local_unnamed_addr #0 {
  %6 = alloca i32, align 4
  call void @llvm.lifetime.start.p0(i64 4, ptr nonnull %6) #10
  %7 = load i32, ptr getelementptr inbounds nuw (i8, ptr @pmix_bfrops_base_framework, i64 76), align 4, !tbaa !7
  %or.cond = icmp ult i32 %7, 64
  br i1 %or.cond, label %8, label %15

8:                                                ; preds = %5
  %9 = zext nneg i32 %7 to i64
  %10 = getelementptr inbounds nuw [0 x %struct.pmix_output_desc_t], ptr @pmix_output_info, i64 0, i64 %9, i32 2
  %11 = load i32, ptr %10, align 4, !tbaa !19
  %12 = icmp sgt i32 %11, 19
  br i1 %12, label %13, label %15

13:                                               ; preds = %8
  %14 = load i32, ptr %3, align 4, !tbaa !3
  tail call void (i32, ptr, ...) @pmix_output(i32 noundef %7, ptr noundef nonnull @.str.29, i32 noundef %14) #10
  br label %15

15:                                               ; preds = %13, %8, %5
  %16 = load i32, ptr %3, align 4, !tbaa !3
  %17 = icmp sgt i32 %16, 0
  br i1 %17, label %.lr.ph.preheader, label %pmix20_bfrop_unpack_value.exit

.lr.ph.preheader:                                 ; preds = %15
  %wide.trip.count = zext nneg i32 %16 to i64
  br label %.lr.ph

.lr.ph:                                           ; preds = %.lr.ph.preheader, %pmix20_bfrop_unpack_value.exit.thread
  %indvars.iv = phi i64 [ 0, %.lr.ph.preheader ], [ %indvars.iv.next, %pmix20_bfrop_unpack_value.exit.thread ]
  %18 = load i32, ptr getelementptr inbounds nuw (i8, ptr @pmix_bfrops_base_framework, i64 76), align 4, !tbaa !7
  %or.cond3 = icmp ult i32 %18, 64
  br i1 %or.cond3, label %19, label %26

19:                                               ; preds = %.lr.ph
  %20 = zext nneg i32 %18 to i64
  %21 = getelementptr inbounds nuw [0 x %struct.pmix_output_desc_t], ptr @pmix_output_info, i64 0, i64 %20, i32 2
  %22 = load i32, ptr %21, align 4, !tbaa !19
  %23 = icmp sgt i32 %22, 19
  br i1 %23, label %24, label %26

24:                                               ; preds = %19
  %25 = trunc nuw nsw i64 %indvars.iv to i32
  call void (i32, ptr, ...) @pmix_output(i32 noundef %18, ptr noundef nonnull @.str.30, i32 noundef %25) #10
  br label %26

26:                                               ; preds = %24, %19, %.lr.ph
  %27 = getelementptr inbounds nuw %struct.pmix_info_array, ptr %2, i64 %indvars.iv
  call void @llvm.memset.p0.i64(ptr noundef nonnull align 8 dereferenceable(16) %27, i8 0, i64 16, i1 false)
  store i32 1, ptr %6, align 4, !tbaa !3
  %28 = call i32 @pmix20_bfrop_unpack_sizet(ptr noundef %0, ptr noundef %1, ptr noundef nonnull %27, ptr noundef nonnull %6, i16 zeroext poison)
  %.not = icmp eq i32 %28, 0
  br i1 %.not, label %29, label %pmix20_bfrop_unpack_value.exit

29:                                               ; preds = %26
  %30 = load i64, ptr %27, align 8, !tbaa !125
  %.not36 = icmp eq i64 %30, 0
  br i1 %.not36, label %pmix20_bfrop_unpack_value.exit.thread, label %31

31:                                               ; preds = %29
  %32 = mul i64 %30, 552
  %33 = call noalias ptr @malloc(i64 noundef %32) #12
  %34 = getelementptr inbounds nuw i8, ptr %27, i64 8
  store ptr %33, ptr %34, align 8, !tbaa !127
  %35 = trunc i64 %30 to i32
  store i32 %35, ptr %6, align 4, !tbaa !3
  %36 = icmp sgt i32 %35, 0
  br i1 %36, label %.lr.ph.preheader.i, label %pmix20_bfrop_unpack_value.exit.thread

.lr.ph.preheader.i:                               ; preds = %31
  %wide.trip.count.i = and i64 %30, 2147483647
  br label %.lr.ph.i

37:                                               ; preds = %40
  %indvars.iv.next.i = add nuw nsw i64 %indvars.iv.i, 1
  %exitcond.not.i = icmp eq i64 %indvars.iv.next.i, %wide.trip.count.i
  br i1 %exitcond.not.i, label %pmix20_bfrop_unpack_value.exit.thread, label %.lr.ph.i, !llvm.loop !69

.lr.ph.i:                                         ; preds = %37, %.lr.ph.preheader.i
  %indvars.iv.i = phi i64 [ 0, %.lr.ph.preheader.i ], [ %indvars.iv.next.i, %37 ]
  %38 = getelementptr inbounds nuw %struct.pmix_value, ptr %33, i64 %indvars.iv.i
  %39 = call i32 @pmix20_bfrop_get_data_type(ptr noundef %0, ptr noundef %1, ptr noundef %38) #10
  %.not.i = icmp eq i32 %39, 0
  br i1 %.not.i, label %40, label %pmix20_bfrop_unpack_value.exit

40:                                               ; preds = %.lr.ph.i
  %41 = call fastcc i32 @unpack_val(ptr noundef %0, ptr noundef %1, ptr noundef %38)
  %.not18.i = icmp eq i32 %41, 0
  br i1 %.not18.i, label %37, label %pmix20_bfrop_unpack_value.exit

pmix20_bfrop_unpack_value.exit.thread:            ; preds = %37, %31, %29
  %indvars.iv.next = add nuw nsw i64 %indvars.iv, 1
  %exitcond.not = icmp eq i64 %indvars.iv.next, %wide.trip.count
  br i1 %exitcond.not, label %pmix20_bfrop_unpack_value.exit, label %.lr.ph, !llvm.loop !128

pmix20_bfrop_unpack_value.exit:                   ; preds = %26, %pmix20_bfrop_unpack_value.exit.thread, %40, %.lr.ph.i, %15
  %.0 = phi i32 [ 0, %15 ], [ %39, %.lr.ph.i ], [ %41, %40 ], [ %28, %26 ], [ 0, %pmix20_bfrop_unpack_value.exit.thread ]
  call void @llvm.lifetime.end.p0(i64 4, ptr nonnull %6) #10
  ret i32 %.0
}